target datalayout = "e-m:e-p270:32:32-p271:32:32-p272:64:64-i64:64-i128:128-f80:128-n8:16:32:64-S128"
target triple = "x86_64-pc-linux-gnu"

%class.btConvexTriangleCallback = type { %class.btTriangleCallback, %class.btVector3, %class.btVector3, ptr, ptr, ptr, ptr, ptr, float, i32, ptr }
%class.btTriangleCallback = type { ptr }
%class.btVector3 = type { [4 x float] }

@_ZTV24btConvexTriangleCallback = dso_local unnamed_addr constant { [5 x ptr] } { [5 x ptr] [ptr null, ptr @_ZTI24btConvexTriangleCallback, ptr @_ZN24btConvexTriangleCallbackD1Ev, ptr @_ZN24btConvexTriangleCallbackD0Ev, ptr @_ZN24btConvexTriangleCallback15processTriangleEP9btVector3ii] }, align 8

; Function Attrs: mustprogress uwtable
define dso_local void @_ZN24btConvexTriangleCallback10clearCacheEv(ptr noundef nonnull align 8 dereferenceable(96) %0) #2 align 2 {
  %2 = alloca ptr, align 8
  store ptr %0, ptr %2, align 8, !tbaa !49
  %3 = load ptr, ptr %2, align 8
  %4 = getelementptr inbounds nuw %class.btConvexTriangleCallback, ptr %3, i32 0, i32 6
  %5 = load ptr, ptr %4, align 8, !tbaa !52
  %6 = getelementptr inbounds nuw %class.btConvexTriangleCallback, ptr %3, i32 0, i32 10
  %7 = load ptr, ptr %6, align 8, !tbaa !56
  %8 = load ptr, ptr %5, align 8, !tbaa !20
  %9 = getelementptr inbounds ptr, ptr %8, i64 5
  %10 = load ptr, ptr %9, align 8
  call void %10(ptr noundef nonnull align 8 dereferenceable(8) %5, ptr noundef %7)
  ret void
}

; Function Attrs: mustprogress nounwind uwtable
define dso_local void @_ZN24btConvexTriangleCallbackD2Ev(ptr noundef nonnull align 8 dereferenceable(96) %0) unnamed_addr #1 align 2 personality ptr @__gxx_personality_v0 {
  %2 = alloca ptr, align 8
  store ptr %0, ptr %2, align 8, !tbaa !49
  %3 = load ptr, ptr %2, align 8
  store ptr getelementptr inbounds inrange(-16, 24) ({ [5 x ptr] }, ptr @_ZTV24btConvexTriangleCallback, i32 0, i32 0, i32 2), ptr %3, align 8, !tbaa !20
  invoke void @_ZN24btConvexTriangleCallback10clearCacheEv(ptr noundef nonnull align 8 dereferenceable(96) %3)
          to label %4 unwind label %13

4:                                                ; preds = %1
  %5 = getelementptr inbounds nuw %class.btConvexTriangleCallback, ptr %3, i32 0, i32 6
  %6 = load ptr, ptr %5, align 8, !tbaa !52
  %7 = getelementptr inbounds nuw %class.btConvexTriangleCallback, ptr %3, i32 0, i32 10
  %8 = load ptr, ptr %7, align 8, !tbaa !56
  %9 = load ptr, ptr %6, align 8, !tbaa !20
  %10 = getelementptr inbounds ptr, ptr %9, i64 4
  %11 = load ptr, ptr %10, align 8
  invoke void %11(ptr noundef nonnull align 8 dereferenceable(8) %6, ptr noundef %8)
          to label %12 unwind label %13

12:                                               ; preds = %4
  call void @_ZN18btTriangleCallbackD2Ev(ptr noundef nonnull align 8 dereferenceable(8) %3) #14
  ret void

13:                                               ; preds = %4, %1
  %14 = landingpad { ptr, i32 }
          catch ptr null
  %15 = extractvalue { ptr, i32 } %14, 0
  call void @__clang_call_terminate(ptr %15) #15
  unreachable
}