; Function Attrs: mustprogress nounwind uwtable
define dso_local void @_ZN24btConvexTriangleCallbackD2Ev(ptr noundef nonnull align 8 dereferenceable(96) initializes((0, 8)) %0) unnamed_addr #3 align 2 personality ptr @__gxx_personality_v0 {
  store ptr getelementptr inbounds nuw inrange(-16, 24) (i8, ptr @_ZTV24btConvexTriangleCallback, i64 16), ptr %0, align 8, !tbaa !4
  %2 = getelementptr inbounds nuw i8, ptr %0, i64 64
  %3 = load ptr, ptr %2, align 8, !tbaa !13
  %4 = getelementptr inbounds nuw i8, ptr %0, i64 88
  %5 = load ptr, ptr %4, align 8, !tbaa !30
  %6 = load ptr, ptr %3, align 8, !tbaa !4
  %7 = getelementptr inbounds nuw i8, ptr %6, i64 40
  %8 = load ptr, ptr %7, align 8
  invoke void %8(ptr noundef nonnull align 8 dereferenceable(8) %3, ptr noundef %5)
          to label %_ZN24btConvexTriangleCallback10clearCacheEv.exit unwind label %15

_ZN24btConvexTriangleCallback10clearCacheEv.exit: ; preds = %1
  %9 = load ptr, ptr %2, align 8, !tbaa !13
  %10 = load ptr, ptr %4, align 8, !tbaa !30
  %11 = load ptr, ptr %9, align 8, !tbaa !4
  %12 = getelementptr inbounds nuw i8, ptr %11, i64 32
  %13 = load ptr, ptr %12, align 8
  invoke void %13(ptr noundef nonnull align 8 dereferenceable(8) %9, ptr noundef %10)
          to label %14 unwind label %15

14:                                               ; preds = %_ZN24btConvexTriangleCallback10clearCacheEv.exit
  tail call void @_ZN18btTriangleCallbackD2Ev(ptr noundef nonnull align 8 dereferenceable(8) %0) #15
  ret void

15:                                               ; preds = %1, %_ZN24btConvexTriangleCallback10clearCacheEv.exit
  %16 = landingpad { ptr, i32 }
          catch ptr null
  %17 = extractvalue { ptr, i32 } %16, 0
  tail call void @__clang_call_terminate(ptr %17) #16
  unreachable
}